target datalayout = "e-m:e-p270:32:32-p271:32:32-p272:64:64-i64:64-i128:128-f80:128-n8:16:32:64-S128"
target triple = "x86_64-unknown-linux-gnu"

%"class.google::LogMessageVoidify" = type { i8 }
%"class.google::LogMessageFatal" = type { %"class.google::LogMessage" }
%"class.google::LogMessage" = type { ptr, ptr, %"struct.google::LogMessageTime" }
%"struct.google::LogMessageTime" = type { %struct.tm, i64, i32, i64 }
%struct.tm = type { i32, i32, i32, i32, i32, i32, i32, i32, i32, i64, ptr }

@.str = private unnamed_addr constant [131 x i8] c"generated/home/dtcxzyw/WorkSpace/Projects/compilers/llvm-opt-benchmark/bench/proxygen/proxygen/proxygen/lib/http/HTTPException.cpp\00", align 1
@.str.1 = private unnamed_addr constant [21 x i8] c"Check failed: false \00", align 1
@.str.2 = private unnamed_addr constant [39 x i8] c"ErrorCode::FLOW_CONTROL_ERROR for QUIC\00", align 1

; Function Attrs: mustprogress nounwind uwtable
define linkonce_odr void @_ZN6google17LogMessageVoidifyanERSo(ptr noundef nonnull align 1 dereferenceable(1) %this, ptr noundef nonnull align 8 dereferenceable(8) %0) #1 comdat align 2 {
entry:
  %this.addr = alloca ptr, align 8
  %.addr = alloca ptr, align 8
  store ptr %this, ptr %this.addr, align 8
  store ptr %0, ptr %.addr, align 8
  ret void
}

; Function Attrs: mustprogress nounwind uwtable
define linkonce_odr void @_ZN6google17LogMessageVoidifyC2Ev(ptr noundef nonnull align 1 dereferenceable(1) %this) unnamed_addr #1 comdat align 2 {
entry:
  %this.addr = alloca ptr, align 8
  store ptr %this, ptr %this.addr, align 8
  ret void
}

; Function Attrs: mustprogress uwtable
define noundef i64 @_ZN8proxygen16toHTTP3ErrorCodeENS_9ErrorCodeE(i8 noundef zeroext %err) #0 personality ptr @__gxx_personality_v0 {
entry:
  %retval = alloca i64, align 8
  %err.addr = alloca i8, align 1
  %ref.tmp = alloca %"class.google::LogMessageVoidify", align 1
  %ref.tmp4 = alloca %"class.google::LogMessageFatal", align 8
  %exn.slot = alloca ptr, align 8
  %ehselector.slot = alloca i32, align 4
  store i8 %err, ptr %err.addr, align 1
  %0 = load i8, ptr %err.addr, align 1
  switch i8 %0, label %sw.default [
    i8 0, label %sw.bb
    i8 1, label %sw.bb1
    i8 2, label %sw.bb2
    i8 3, label %sw.bb3
    i8 4, label %sw.bb10
    i8 5, label %sw.bb10
    i8 6, label %sw.bb11
    i8 7, label %sw.bb12
    i8 8, label %sw.bb13
    i8 9, label %sw.bb14
    i8 10, label %sw.bb15
    i8 11, label %sw.bb16
    i8 12, label %sw.bb17
    i8 13, label %sw.bb17
  ]

sw.bb:                                            ; preds = %entry
  store i64 256, ptr %retval, align 8
  br label %return

sw.bb1:                                           ; preds = %entry
  store i64 257, ptr %retval, align 8
  br label %return

sw.bb2:                                           ; preds = %entry
  store i64 258, ptr %retval, align 8
  br label %return

sw.bb3:                                           ; preds = %entry
  br label %while.cond

while.cond:                                       ; preds = %sw.bb3
  br i1 false, label %while.body, label %while.end

while.body:                                       ; preds = %while.cond
  call void @_ZN6google17LogMessageVoidifyC2Ev(ptr noundef nonnull align 1 dereferenceable(1) %ref.tmp)
  call void @_ZN6google15LogMessageFatalC1EPKci(ptr noundef nonnull align 8 dereferenceable(96) %ref.tmp4, ptr noundef @.str, i32 noundef 25)
  %call = invoke noundef nonnull align 8 dereferenceable(8) ptr @_ZN6google10LogMessage6streamEv(ptr noundef nonnull align 8 dereferenceable(96) %ref.tmp4)
          to label %invoke.cont unwind label %lpad

invoke.cont:                                      ; preds = %while.body
  %call6 = invoke noundef nonnull align 8 dereferenceable(8) ptr @_ZStlsISt11char_traitsIcEERSt13basic_ostreamIcT_ES5_PKc(ptr noundef nonnull align 8 dereferenceable(8) %call, ptr noundef @.str.1)
          to label %invoke.cont5 unwind label %lpad

invoke.cont5:                                     ; preds = %invoke.cont
  %call8 = invoke noundef nonnull align 8 dereferenceable(8) ptr @_ZStlsISt11char_traitsIcEERSt13basic_ostreamIcT_ES5_PKc(ptr noundef nonnull align 8 dereferenceable(8) %call6, ptr noundef @.str.2)
          to label %invoke.cont7 unwind label %lpad

invoke.cont7:                                     ; preds = %invoke.cont5
  invoke void @_ZN6google17LogMessageVoidifyanERSo(ptr noundef nonnull align 1 dereferenceable(1) %ref.tmp, ptr noundef nonnull align 8 dereferenceable(8) %call8)
          to label %invoke.cont9 unwind label %lpad

invoke.cont9:                                     ; preds = %invoke.cont7
  call void @_ZN6google15LogMessageFatalD1Ev(ptr noundef nonnull align 8 dereferenceable(96) %ref.tmp4) #10
  unreachable

lpad:                                             ; preds = %invoke.cont7, %invoke.cont5, %invoke.cont, %while.body
  %1 = landingpad { ptr, i32 }
          cleanup
  %2 = extractvalue { ptr, i32 } %1, 0
  store ptr %2, ptr %exn.slot, align 8
  %3 = extractvalue { ptr, i32 } %1, 1
  store i32 %3, ptr %ehselector.slot, align 4
  call void @_ZN6google15LogMessageFatalD1Ev(ptr noundef nonnull align 8 dereferenceable(96) %ref.tmp4) #10
  unreachable

4:                                                ; No predecessors!
  br label %eh.resume

while.end:                                        ; preds = %while.cond
  br label %sw.bb10

sw.bb10:                                          ; preds = %while.end, %entry, %entry
  store i64 257, ptr %retval, align 8
  br label %return

sw.bb11:                                          ; preds = %entry
  store i64 262, ptr %retval, align 8
  br label %return

sw.bb12:                                          ; preds = %entry
  store i64 267, ptr %retval, align 8
  br label %return

sw.bb13:                                          ; preds = %entry
  store i64 268, ptr %retval, align 8
  br label %return

sw.bb14:                                          ; preds = %entry
  store i64 512, ptr %retval, align 8
  br label %return

sw.bb15:                                          ; preds = %entry
  store i64 271, ptr %retval, align 8
  br label %return

sw.bb16:                                          ; preds = %entry
  store i64 263, ptr %retval, align 8
  br label %return

sw.bb17:                                          ; preds = %entry, %entry
  br label %sw.default

sw.default:                                       ; preds = %sw.bb17, %entry
  store i64 257, ptr %retval, align 8
  br label %return

return:                                           ; preds = %sw.default, %sw.bb16, %sw.bb15, %sw.bb14, %sw.bb13, %sw.bb12, %sw.bb11, %sw.bb10, %sw.bb2, %sw.bb1, %sw.bb
  %5 = load i64, ptr %retval, align 8
  ret i64 %5

eh.resume:                                        ; preds = %4
  %exn = load ptr, ptr %exn.slot, align 8
  %sel = load i32, ptr %ehselector.slot, align 4
  %lpad.val = insertvalue { ptr, i32 } poison, ptr %exn, 0
  %lpad.val18 = insertvalue { ptr, i32 } %lpad.val, i32 %sel, 1
  resume { ptr, i32 } %lpad.val18
}