; Function Attrs: mustprogress nofree norecurse nosync nounwind willreturn memory(none) uwtable
define noundef i64 @_ZN8proxygen16toHTTP3ErrorCodeENS_9ErrorCodeE(i8 noundef zeroext %err) local_unnamed_addr #0 personality ptr @__gxx_personality_v0 {
entry:
  %0 = icmp ult i8 %err, 12
  br i1 %0, label %switch.lookup, label %return

switch.lookup:                                    ; preds = %entry
  %1 = zext nneg i8 %err to i64
  %switch.gep = getelementptr inbounds [12 x i64], ptr @switch.table._ZN8proxygenlsERSoRKNS_13HTTPExceptionE, i64 0, i64 %1
  %switch.load = load i64, ptr %switch.gep, align 8
  br label %return

return:                                           ; preds = %entry, %switch.lookup
  %retval.0 = phi i64 [ %switch.load, %switch.lookup ], [ 257, %entry ]
  ret i64 %retval.0
}